target datalayout = "e-m:e-p270:32:32-p271:32:32-p272:64:64-i64:64-i128:128-f80:128-n8:16:32:64-S128"
target triple = "x86_64-pc-linux-gnu"

%class.LibRaw = type { ptr, %struct.libraw_data_t, ptr, %struct.libraw_internal_data_t, [2048 x %struct.decode], ptr, ptr, [10 x %struct.tiff_ifd_t], %class.libraw_memmgr, %struct.libraw_callbacks_t, { i64, i64 }, { i64, i64 }, { i64, i64 }, ptr, ptr, ptr, i64, ptr, ptr, ptr, ptr }
%struct.libraw_data_t = type { ptr, %struct.libraw_image_sizes_t, %struct.libraw_iparams_t, %struct.libraw_lensinfo_t, %struct.libraw_makernotes_t, %struct.libraw_shootinginfo_t, %struct.libraw_output_params_t, %struct.libraw_raw_unpack_params_t, i32, i32, %struct.libraw_colordata_t, %struct.libraw_imgother_t, %struct.libraw_thumbnail_t, %struct.libraw_thumbnail_list_t, %struct.libraw_rawdata_t, ptr }
%struct.libraw_image_sizes_t = type { i16, i16, i16, i16, i16, i16, i16, i16, i32, double, i32, [8 x [4 x i32]], i16, [2 x %struct.libraw_raw_inset_crop_t] }
%struct.libraw_raw_inset_crop_t = type { i16, i16, i16, i16 }
%struct.libraw_iparams_t = type { [4 x i8], [64 x i8], [64 x i8], [64 x i8], [64 x i8], [64 x i8], i32, i32, i32, i32, i32, i32, [6 x [6 x i8]], [6 x [6 x i8]], [5 x i8], i32, ptr }
%struct.libraw_lensinfo_t = type { float, float, float, float, float, [128 x i8], [128 x i8], [128 x i8], [128 x i8], i16, %struct.libraw_nikonlens_t, %struct.libraw_dnglens_t, %struct.libraw_makernotes_lens_t }
%struct.libraw_nikonlens_t = type { float, i8, i8, i8, i8 }
%struct.libraw_dnglens_t = type { float, float, float, float }
%struct.libraw_makernotes_lens_t = type { i64, [128 x i8], i16, i16, i64, i16, i16, [64 x i8], i16, [16 x i8], [16 x i8], float, float, float, float, float, float, float, float, float, float, float, float, float, float, float, i64, [128 x i8], i64, [128 x i8], i64, [128 x i8], i16, float }
%struct.libraw_makernotes_t = type { %struct.libraw_canon_makernotes_t, %struct.libraw_nikon_makernotes_t, %struct.libraw_hasselblad_makernotes_t, %struct.libraw_fuji_info_t, %struct.libraw_olympus_makernotes_t, %struct.libraw_sony_info_t, %struct.libraw_kodak_makernotes_t, %struct.libraw_panasonic_makernotes_t, %struct.libraw_pentax_makernotes_t, %struct.libraw_p1_makernotes_t, %struct.libraw_ricoh_makernotes_t, %struct.libraw_samsung_makernotes_t, %struct.libraw_metadata_common_t }
%struct.libraw_canon_makernotes_t = type { i32, i32, i32, i32, [4 x i32], i32, [4 x i32], i16, i16, i8, i16, i16, i16, i16, i16, i16, i16, i16, i16, i16, i16, i16, i16, i32, float, i16, i16, i16, i32, i16, i32, i32, i16, i32, %struct.libraw_area_t, %struct.libraw_area_t, %struct.libraw_area_t, %struct.libraw_area_t, %struct.libraw_area_t, [2 x i16] }
%struct.libraw_area_t = type { i16, i16, i16, i16 }
%struct.libraw_nikon_makernotes_t = type { double, i16, i16, [7 x i8], i8, i8, [13 x i8], [20 x i8], [4 x i8], [4 x i8], [4 x i8], i8, i8, i8, i8, i8, [2 x i8], i8, i8, i8, i8, i8, [4 x i8], [4 x i8], i8, i16, i32, i32, i32, i32, [4 x double], i8, i8, i8, i32, i32, i32, i8, [4 x i16], i16, %struct.libraw_sensor_highspeed_crop_t, i16, i16, i16, i32, [20 x i8], [20 x i8], i32, i16, double, double, double }
%struct.libraw_sensor_highspeed_crop_t = type { i16, i16, i16, i16 }
%struct.libraw_hasselblad_makernotes_t = type { i32, double, [8 x i8], [64 x i8], [64 x i8], i32, i32, i32, i32, [32 x i8], [64 x i8], i32, [2 x i32], [2 x i32], [4 x [3 x double]] }
%struct.libraw_fuji_info_t = type { float, i16, i16, i16, i16, i16, i16, i16, i16, [33 x i8], [33 x i8], float, i16, i16, [2 x i16], i16, i32, i32, i16, [3 x i16], i16, i16, i16, i16, i16, i32, i16, [13 x i8], [5 x i8], [5 x i8], i32, i16, i32, i16, [9 x i16], [32 x i32], i32, i32, i32, [2 x float], i32 }
%struct.libraw_olympus_makernotes_t = type { [6 x i8], i16, [2 x i32], [5 x i16], i16, [2 x i16], i16, i16, [64 x i32], [5 x double], i16, i8, [3 x i16], [3 x i32], i16, i16, i16, i16, double, [4 x i16], [2 x i32], i8, i32, i16, i16 }
%struct.libraw_sony_info_t = type { i16, i8, i8, i32, i8, i32, i8, i8, i16, [2 x i16], i8, i8, i16, [10 x i8], i8, i8, [4 x i16], i16, i8, i8, i8, i16, i32, i16, [2 x i16], i16, i16, i16, i16, i16, i16, i16, i32, float, i16, i32, i32, i16, [20 x i8], i32, i16, i32, i8, i8, i16, i16, i16, i16, i16, i16, i16, i16, i16, i32, i16, [16 x i8], float }
%struct.libraw_kodak_makernotes_t = type { i16, i16, i16, i16, i16, i16, [3 x [3 x float]], [3 x [3 x float]], [3 x [3 x float]], [3 x [3 x float]], [3 x [3 x float]], [3 x [3 x float]], i16, i16, i16, i16, float, float }
%struct.libraw_panasonic_makernotes_t = type { i16, i16, [8 x float], i32, float, [3 x i32], i16, i16, i32, i32 }
%struct.libraw_pentax_makernotes_t = type { [4 x i8], [2 x i16], [2 x i16], i16, i32, i32, i16, i16, i8, i8, i16 }
%struct.libraw_p1_makernotes_t = type { [64 x i8], [64 x i8], [256 x i8], [64 x i8] }
%struct.libraw_ricoh_makernotes_t = type { i16, [2 x i32], [2 x i32], i16, i32, i32, i32, i32, i16, i16, i16, i16, i16, i16, double, double }
%struct.libraw_samsung_makernotes_t = type { [4 x i32], [4 x i32], [2 x i32], [11 x i32], double, i32, [32 x i8] }
%struct.libraw_metadata_common_t = type { float, float, float, float, float, float, float, float, float, float, float, float, float, float, float, float, i16, [128 x i8], float, [4 x %struct.libraw_afinfo_item_t], i32 }
%struct.libraw_afinfo_item_t = type { i32, i16, i32, i32, ptr }
%struct.libraw_shootinginfo_t = type { i16, i16, i16, i16, i16, i16, i16, [64 x i8], [64 x i8] }
%struct.libraw_output_params_t = type { [4 x i32], [4 x i32], [4 x double], [6 x double], [4 x float], float, float, i32, i32, i32, i32, i32, i32, i32, ptr, ptr, ptr, ptr, i32, i32, i32, i32, i32, i32, [4 x i32], i32, i32, float, float, i32, i32, i32, i32, i32, i32, i32, i32, float, float, i32, i32 }
%struct.libraw_raw_unpack_params_t = type { i32, i32, i32, i32, i32, i32, i32, float, [5 x i8], ptr }
%struct.libraw_colordata_t = type { [65536 x i16], [4104 x i32], i32, i32, i32, [4 x i64], float, float, [8 x [8 x i16]], [4 x float], [4 x float], [3 x [4 x float]], [3 x [4 x float]], [3 x [4 x float]], [4 x [3 x float]], %struct.ph1_t, float, float, [64 x i8], [64 x i8], [64 x i8], [64 x i8], [17 x i8], [64 x i8], ptr, i32, [8 x i32], [2 x %struct.libraw_dng_color_t], %struct.libraw_dng_levels_t, [256 x [4 x i32]], [64 x [5 x float]], i32, [2 x %struct.libraw_P1_color_t], i32, i32 }
%struct.ph1_t = type { i32, i32, i32, i32, i32, i32, i32, i32, float }
%struct.libraw_dng_color_t = type { i32, i16, [4 x [4 x float]], [4 x [3 x float]], [3 x [4 x float]] }
%struct.libraw_dng_levels_t = type { i32, [4104 x i32], i32, [4104 x float], float, [4 x i32], [4 x i16], [4 x float], i32, [4 x float], [4 x float], float, float }
%struct.libraw_P1_color_t = type { [9 x float] }
%struct.libraw_imgother_t = type { float, float, float, float, i64, i32, [32 x i32], %struct.libraw_gps_info_t, [512 x i8], [64 x i8], [4 x float] }
%struct.libraw_gps_info_t = type { [3 x float], [3 x float], [3 x float], float, i8, i8, i8, i8, i8 }
%struct.libraw_thumbnail_t = type { i32, i16, i16, i32, i32, ptr }
%struct.libraw_thumbnail_list_t = type { i32, [8 x %struct.libraw_thumbnail_item_t] }
%struct.libraw_thumbnail_item_t = type { i32, i16, i16, i16, i32, i32, i64 }
%struct.libraw_rawdata_t = type { ptr, ptr, ptr, ptr, ptr, ptr, ptr, ptr, ptr, %struct.libraw_iparams_t, %struct.libraw_image_sizes_t, %struct.libraw_internal_output_params_t, %struct.libraw_colordata_t }
%struct.libraw_internal_output_params_t = type { i32, i32, i32, i16, i16 }
%struct.libraw_internal_data_t = type { %struct.internal_data_t, %struct.libraw_internal_output_params_t, %struct.output_data_t, %struct.identify_data_t, %struct.unpacker_data_t }
%struct.internal_data_t = type { ptr, ptr, i32, ptr, i64, i64, [4 x i32] }
%struct.output_data_t = type { ptr, ptr }
%struct.identify_data_t = type { i32, i64, i64, i32, i32, i32 }
%struct.unpacker_data_t = type { i16, [4 x i16], [3 x i16], i32, i64, i64, i64, i64, i64, i64, i32, i32, i32, i32, i32, i32, i32, i32, i32, i32, i32, i32, i32, i32, i32, i32, i32, i64, i32, i32, i32, i32, i32, i32, i32, i32, i32, %struct.pana8_tags_t, [16 x %struct.crx_data_header_t], i32, i32, i16, i16, i32, i32, i32, i32, i32, i32, i32, [20 x i32], i16 }
%struct.pana8_tags_t = type { [6 x i32], [6 x i16], i16, [4 x i16], [17 x i16], [17 x i16], [17 x i16], i16, i16, [5 x i64], [5 x i16], [5 x i32], [5 x i16], [5 x i16] }
%struct.crx_data_header_t = type { i32, i32, i32, i32, i32, i32, i32, i32, i32, i32, i32, i32, i32, i32, i32, i64, i32, ptr, i32, i32, i32, ptr, i32, ptr }
%struct.decode = type { [2 x ptr], i32 }
%struct.tiff_ifd_t = type { i32, i32, i32, i32, i32, i32, i32, i32, i32, i32, i32, i32, i32, i32, i32, ptr, i32, ptr, i32, i32, i32, i32, i32, i32, i32, float, i64, i64, i32, [2 x %struct.libraw_dng_color_t], %struct.libraw_dng_levels_t, i32 }
%class.libraw_memmgr = type <{ ptr, i32, [4 x i8] }>
%struct.libraw_callbacks_t = type { ptr, ptr, ptr, ptr, ptr, ptr, ptr, ptr, ptr, ptr, ptr, ptr, ptr, ptr, ptr, ptr, ptr }

; Function Attrs: mustprogress uwtable
define void @_ZN6LibRaw28nikon_load_padded_packed_rawEv(ptr noundef nonnull align 8 dereferenceable(767680) %0) #0 align 2 {
  %2 = alloca ptr, align 8
  %3 = alloca ptr, align 8
  %4 = alloca i32, align 4
  %5 = alloca i32, align 4
  %6 = alloca i32, align 4
  store ptr %0, ptr %2, align 8, !tbaa !6
  %7 = load ptr, ptr %2, align 8
  %8 = getelementptr inbounds nuw %class.LibRaw, ptr %7, i32 0, i32 3
  %9 = getelementptr inbounds nuw %struct.libraw_internal_data_t, ptr %8, i32 0, i32 4
  %10 = getelementptr inbounds nuw %struct.unpacker_data_t, ptr %9, i32 0, i32 24
  %11 = load i32, ptr %10, align 8, !tbaa !129
  %12 = icmp ult i32 %11, 2000
  br i1 %12, label %19, label %13

13:                                               ; preds = %1
  %14 = getelementptr inbounds nuw %class.LibRaw, ptr %7, i32 0, i32 3
  %15 = getelementptr inbounds nuw %struct.libraw_internal_data_t, ptr %14, i32 0, i32 4
  %16 = getelementptr inbounds nuw %struct.unpacker_data_t, ptr %15, i32 0, i32 24
  %17 = load i32, ptr %16, align 8, !tbaa !129
  %18 = icmp ugt i32 %17, 64000
  br i1 %18, label %19, label %20

19:                                               ; preds = %13, %1
  br label %144

20:                                               ; preds = %13
  call void @llvm.lifetime.start.p0(i64 8, ptr %3) #14
  %21 = getelementptr inbounds nuw %class.LibRaw, ptr %7, i32 0, i32 3
  %22 = getelementptr inbounds nuw %struct.libraw_internal_data_t, ptr %21, i32 0, i32 4
  %23 = getelementptr inbounds nuw %struct.unpacker_data_t, ptr %22, i32 0, i32 24
  %24 = load i32, ptr %23, align 8, !tbaa !129
  %25 = zext i32 %24 to i64
  %26 = call noundef ptr @_ZN6LibRaw6callocEmm(ptr noundef nonnull align 8 dereferenceable(767680) %7, i64 noundef %25, i64 noundef 1)
  store ptr %26, ptr %3, align 8, !tbaa !121
  call void @llvm.lifetime.start.p0(i64 4, ptr %4) #14
  store i32 0, ptr %4, align 4, !tbaa !83
  br label %27

27:                                               ; preds = %139, %20
  %28 = load i32, ptr %4, align 4, !tbaa !83
  %29 = getelementptr inbounds nuw %class.LibRaw, ptr %7, i32 0, i32 1
  %30 = getelementptr inbounds nuw %struct.libraw_data_t, ptr %29, i32 0, i32 1
  %31 = getelementptr inbounds nuw %struct.libraw_image_sizes_t, ptr %30, i32 0, i32 0
  %32 = load i16, ptr %31, align 8, !tbaa !78
  %33 = zext i16 %32 to i32
  %34 = icmp slt i32 %28, %33
  br i1 %34, label %36, label %35

35:                                               ; preds = %27
  store i32 2, ptr %5, align 4
  call void @llvm.lifetime.end.p0(i64 4, ptr %4) #14
  br label %142

36:                                               ; preds = %27
  call void @_ZN6LibRaw11checkCancelEv(ptr noundef nonnull align 8 dereferenceable(767680) %7)
  %37 = getelementptr inbounds nuw %class.LibRaw, ptr %7, i32 0, i32 3
  %38 = getelementptr inbounds nuw %struct.libraw_internal_data_t, ptr %37, i32 0, i32 0
  %39 = getelementptr inbounds nuw %struct.internal_data_t, ptr %38, i32 0, i32 0
  %40 = load ptr, ptr %39, align 8, !tbaa !79
  %41 = load ptr, ptr %3, align 8, !tbaa !121
  %42 = getelementptr inbounds nuw %class.LibRaw, ptr %7, i32 0, i32 3
  %43 = getelementptr inbounds nuw %struct.libraw_internal_data_t, ptr %42, i32 0, i32 4
  %44 = getelementptr inbounds nuw %struct.unpacker_data_t, ptr %43, i32 0, i32 24
  %45 = load i32, ptr %44, align 8, !tbaa !129
  %46 = zext i32 %45 to i64
  %47 = load ptr, ptr %40, align 8, !tbaa !80
  %48 = getelementptr inbounds ptr, ptr %47, i64 3
  %49 = load ptr, ptr %48, align 8
  %50 = call noundef i32 %49(ptr noundef nonnull align 8 dereferenceable(8) %40, ptr noundef %41, i64 noundef %46, i64 noundef 1)
  call void @llvm.lifetime.start.p0(i64 4, ptr %6) #14
  store i32 0, ptr %6, align 4, !tbaa !83
  br label %51

51:                                               ; preds = %135, %36
  %52 = load i32, ptr %6, align 4, !tbaa !83
  %53 = getelementptr inbounds nuw %class.LibRaw, ptr %7, i32 0, i32 1
  %54 = getelementptr inbounds nuw %struct.libraw_data_t, ptr %53, i32 0, i32 1
  %55 = getelementptr inbounds nuw %struct.libraw_image_sizes_t, ptr %54, i32 0, i32 1
  %56 = load i16, ptr %55, align 2, !tbaa !77
  %57 = zext i16 %56 to i32
  %58 = sdiv i32 %57, 2
  %59 = icmp slt i32 %52, %58
  br i1 %59, label %61, label %60

60:                                               ; preds = %51
  store i32 5, ptr %5, align 4
  call void @llvm.lifetime.end.p0(i64 4, ptr %6) #14
  br label %138

61:                                               ; preds = %51
  %62 = load ptr, ptr %3, align 8, !tbaa !121
  %63 = load i32, ptr %6, align 4, !tbaa !83
  %64 = mul nsw i32 %63, 3
  %65 = add nsw i32 %64, 1
  %66 = sext i32 %65 to i64
  %67 = getelementptr inbounds i8, ptr %62, i64 %66
  %68 = load i8, ptr %67, align 1, !tbaa !95
  %69 = zext i8 %68 to i32
  %70 = and i32 %69, 15
  %71 = shl i32 %70, 8
  %72 = load ptr, ptr %3, align 8, !tbaa !121
  %73 = load i32, ptr %6, align 4, !tbaa !83
  %74 = mul nsw i32 %73, 3
  %75 = sext i32 %74 to i64
  %76 = getelementptr inbounds i8, ptr %72, i64 %75
  %77 = load i8, ptr %76, align 1, !tbaa !95
  %78 = zext i8 %77 to i32
  %79 = or i32 %71, %78
  %80 = trunc i32 %79 to i16
  %81 = getelementptr inbounds nuw %class.LibRaw, ptr %7, i32 0, i32 1
  %82 = getelementptr inbounds nuw %struct.libraw_data_t, ptr %81, i32 0, i32 14
  %83 = getelementptr inbounds nuw %struct.libraw_rawdata_t, ptr %82, i32 0, i32 1
  %84 = load ptr, ptr %83, align 8, !tbaa !76
  %85 = load i32, ptr %4, align 4, !tbaa !83
  %86 = getelementptr inbounds nuw %class.LibRaw, ptr %7, i32 0, i32 1
  %87 = getelementptr inbounds nuw %struct.libraw_data_t, ptr %86, i32 0, i32 1
  %88 = getelementptr inbounds nuw %struct.libraw_image_sizes_t, ptr %87, i32 0, i32 1
  %89 = load i16, ptr %88, align 2, !tbaa !77
  %90 = zext i16 %89 to i32
  %91 = mul nsw i32 %85, %90
  %92 = load i32, ptr %6, align 4, !tbaa !83
  %93 = mul nsw i32 %92, 2
  %94 = add nsw i32 %91, %93
  %95 = sext i32 %94 to i64
  %96 = getelementptr inbounds i16, ptr %84, i64 %95
  store i16 %80, ptr %96, align 2, !tbaa !85
  %97 = load ptr, ptr %3, align 8, !tbaa !121
  %98 = load i32, ptr %6, align 4, !tbaa !83
  %99 = mul nsw i32 %98, 3
  %100 = add nsw i32 %99, 2
  %101 = sext i32 %100 to i64
  %102 = getelementptr inbounds i8, ptr %97, i64 %101
  %103 = load i8, ptr %102, align 1, !tbaa !95
  %104 = zext i8 %103 to i32
  %105 = shl i32 %104, 4
  %106 = load ptr, ptr %3, align 8, !tbaa !121
  %107 = load i32, ptr %6, align 4, !tbaa !83
  %108 = mul nsw i32 %107, 3
  %109 = add nsw i32 %108, 1
  %110 = sext i32 %109 to i64
  %111 = getelementptr inbounds i8, ptr %106, i64 %110
  %112 = load i8, ptr %111, align 1, !tbaa !95
  %113 = zext i8 %112 to i32
  %114 = and i32 %113, 240
  %115 = ashr i32 %114, 4
  %116 = or i32 %105, %115
  %117 = trunc i32 %116 to i16
  %118 = getelementptr inbounds nuw %class.LibRaw, ptr %7, i32 0, i32 1
  %119 = getelementptr inbounds nuw %struct.libraw_data_t, ptr %118, i32 0, i32 14
  %120 = getelementptr inbounds nuw %struct.libraw_rawdata_t, ptr %119, i32 0, i32 1
  %121 = load ptr, ptr %120, align 8, !tbaa !76
  %122 = load i32, ptr %4, align 4, !tbaa !83
  %123 = getelementptr inbounds nuw %class.LibRaw, ptr %7, i32 0, i32 1
  %124 = getelementptr inbounds nuw %struct.libraw_data_t, ptr %123, i32 0, i32 1
  %125 = getelementptr inbounds nuw %struct.libraw_image_sizes_t, ptr %124, i32 0, i32 1
  %126 = load i16, ptr %125, align 2, !tbaa !77
  %127 = zext i16 %126 to i32
  %128 = mul nsw i32 %122, %127
  %129 = load i32, ptr %6, align 4, !tbaa !83
  %130 = mul nsw i32 %129, 2
  %131 = add nsw i32 %130, 1
  %132 = add nsw i32 %128, %131
  %133 = sext i32 %132 to i64
  %134 = getelementptr inbounds i16, ptr %121, i64 %133
  store i16 %117, ptr %134, align 2, !tbaa !85
  br label %135

135:                                              ; preds = %61
  %136 = load i32, ptr %6, align 4, !tbaa !83
  %137 = add nsw i32 %136, 1
  store i32 %137, ptr %6, align 4, !tbaa !83
  br label %51, !llvm.loop !130

138:                                              ; preds = %60
  br label %139

139:                                              ; preds = %138
  %140 = load i32, ptr %4, align 4, !tbaa !83
  %141 = add nsw i32 %140, 1
  store i32 %141, ptr %4, align 4, !tbaa !83
  br label %27, !llvm.loop !131

142:                                              ; preds = %35
  %143 = load ptr, ptr %3, align 8, !tbaa !121
  call void @_ZN6LibRaw4freeEPv(ptr noundef nonnull align 8 dereferenceable(767680) %7, ptr noundef %143)
  call void @llvm.lifetime.end.p0(i64 8, ptr %3) #14
  br label %144

144:                                              ; preds = %142, %19
  ret void
}