; Function Attrs: mustprogress uwtable
define void @_ZN6LibRaw28nikon_load_padded_packed_rawEv(ptr noundef nonnull align 8 dereferenceable(767680) %0) local_unnamed_addr #0 align 2 {
  %2 = getelementptr inbounds nuw i8, ptr %0, i64 381416
  %3 = getelementptr inbounds nuw i8, ptr %0, i64 381680
  %4 = load i32, ptr %3, align 8, !tbaa !124
  %5 = add i32 %4, -64001
  %or.cond = icmp ult i32 %5, -62001
  br i1 %or.cond, label %65, label %6

6:                                                ; preds = %1
  %7 = zext nneg i32 %4 to i64
  %8 = tail call noundef ptr @_ZN6LibRaw6callocEmm(ptr noundef nonnull align 8 dereferenceable(767680) %0, i64 noundef %7, i64 noundef 1)
  %9 = getelementptr inbounds nuw i8, ptr %0, i64 16
  %10 = load i16, ptr %9, align 8, !tbaa !75
  %.not = icmp eq i16 %10, 0
  br i1 %.not, label %._crit_edge24, label %.lr.ph23

.lr.ph23:                                         ; preds = %6
  %11 = getelementptr inbounds nuw i8, ptr %0, i64 18
  %12 = getelementptr inbounds nuw i8, ptr %0, i64 193648
  br label %13

._crit_edge24:                                    ; preds = %._crit_edge, %6
  tail call void @_ZN6LibRaw4freeEPv(ptr noundef nonnull align 8 dereferenceable(767680) %0, ptr noundef %8)
  br label %65

13:                                               ; preds = %.lr.ph23, %._crit_edge
  %.01821 = phi i32 [ 0, %.lr.ph23 ], [ %24, %._crit_edge ]
  tail call void @_ZN6LibRaw11checkCancelEv(ptr noundef nonnull align 8 dereferenceable(767680) %0)
  %14 = load ptr, ptr %2, align 8, !tbaa !76
  %15 = load i32, ptr %3, align 8, !tbaa !124
  %16 = zext i32 %15 to i64
  %17 = load ptr, ptr %14, align 8, !tbaa !77
  %18 = getelementptr inbounds nuw i8, ptr %17, i64 24
  %19 = load ptr, ptr %18, align 8
  %20 = tail call noundef i32 %19(ptr noundef nonnull align 8 dereferenceable(8) %14, ptr noundef %8, i64 noundef %16, i64 noundef 1)
  %21 = load i16, ptr %11, align 2, !tbaa !74
  %.not25 = icmp ult i16 %21, 2
  br i1 %.not25, label %._crit_edge, label %.lr.ph

.lr.ph:                                           ; preds = %13
  %22 = zext i16 %21 to i32
  %23 = load ptr, ptr %12, align 8, !tbaa !73
  br label %28

._crit_edge:                                      ; preds = %28, %13
  %24 = add nuw nsw i32 %.01821, 1
  %25 = load i16, ptr %9, align 8, !tbaa !75
  %26 = zext i16 %25 to i32
  %27 = icmp samesign ult i32 %24, %26
  br i1 %27, label %13, label %._crit_edge24, !llvm.loop !125

28:                                               ; preds = %.lr.ph, %28
  %indvars.iv = phi i64 [ 0, %.lr.ph ], [ %indvars.iv.next, %28 ]
  %29 = phi i32 [ %22, %.lr.ph ], [ %61, %28 ]
  %30 = mul nuw nsw i64 %indvars.iv, 3
  %31 = getelementptr inbounds nuw i8, ptr %8, i64 %30
  %32 = getelementptr inbounds nuw i8, ptr %31, i64 1
  %33 = load i8, ptr %32, align 1, !tbaa !89
  %34 = and i8 %33, 15
  %35 = zext nneg i8 %34 to i16
  %36 = shl nuw nsw i16 %35, 8
  %37 = load i8, ptr %31, align 1, !tbaa !89
  %38 = zext i8 %37 to i16
  %39 = or disjoint i16 %36, %38
  %40 = mul nuw nsw i32 %29, %.01821
  %41 = shl nuw nsw i64 %indvars.iv, 1
  %42 = zext nneg i32 %40 to i64
  %43 = getelementptr inbounds nuw i16, ptr %23, i64 %41
  %44 = getelementptr inbounds nuw i16, ptr %43, i64 %42
  store i16 %39, ptr %44, align 2, !tbaa !80
  %45 = getelementptr inbounds nuw i8, ptr %31, i64 2
  %46 = load i8, ptr %45, align 1, !tbaa !89
  %47 = zext i8 %46 to i16
  %48 = shl nuw nsw i16 %47, 4
  %49 = load i8, ptr %32, align 1, !tbaa !89
  %50 = lshr i8 %49, 4
  %51 = zext nneg i8 %50 to i16
  %52 = or disjoint i16 %48, %51
  %53 = load i16, ptr %11, align 2, !tbaa !74
  %54 = zext i16 %53 to i32
  %55 = mul nuw nsw i32 %.01821, %54
  %56 = or disjoint i64 %41, 1
  %57 = zext nneg i32 %55 to i64
  %58 = getelementptr inbounds nuw i16, ptr %23, i64 %56
  %59 = getelementptr inbounds nuw i16, ptr %58, i64 %57
  store i16 %52, ptr %59, align 2, !tbaa !80
  %indvars.iv.next = add nuw nsw i64 %indvars.iv, 1
  %60 = load i16, ptr %11, align 2, !tbaa !74
  %61 = zext i16 %60 to i32
  %62 = lshr i32 %61, 1
  %63 = zext nneg i32 %62 to i64
  %64 = icmp samesign ult i64 %indvars.iv.next, %63
  br i1 %64, label %28, label %._crit_edge, !llvm.loop !126

65:                                               ; preds = %1, %._crit_edge24
  ret void
}